; Function Attrs: nounwind uwtable
define dso_local i32 @lzma_simple_x86_decoder_init(ptr noundef %0, ptr noundef %1, ptr noundef %2) local_unnamed_addr #0 {
  %4 = tail call i32 @lzma_simple_coder_init(ptr noundef %0, ptr noundef %1, ptr noundef %2, ptr noundef nonnull @x86_code, i64 noundef 8, i64 noundef 5, i32 noundef 1, i1 noundef zeroext false) #3
  %5 = icmp eq i32 %4, 0
  br i1 %5, label %6, label %x86_coder_init.exit

6:                                                ; preds = %3
  %7 = load ptr, ptr %0, align 8, !tbaa !4
  %8 = getelementptr inbounds nuw i8, ptr %7, i64 96
  %9 = load ptr, ptr %8, align 8, !tbaa !10
  store i32 0, ptr %9, align 4, !tbaa !11
  %10 = getelementptr inbounds nuw i8, ptr %9, i64 4
  store i32 -5, ptr %10, align 4, !tbaa !14
  br label %x86_coder_init.exit

x86_coder_init.exit:                              ; preds = %3, %6
  ret i32 %4
}